; ModuleID = '2/422.c'
source_filename = "2/422.c"
target datalayout = "e-m:e-p270:32:32-p271:32:32-p272:64:64-i64:64-f80:128-n8:16:32:64-S128"
target triple = "x86_64-pc-linux-gnu"

%struct.b = type { i32, [27 x i8] }

@.str = private unnamed_addr constant [3 x i8] c"%d\00", align 1
@.str.1 = private unnamed_addr constant [6 x i8] c"%d %s\00", align 1
@.str.2 = private unnamed_addr constant [7 x i8] c"%c\0A%d\0A\00", align 1
@.str.3 = private unnamed_addr constant [4 x i8] c"%d\0A\00", align 1

; Function Attrs: noinline nounwind uwtable
define dso_local void @main() #0 {
  %1 = alloca [100 x %struct.b], align 16
  %2 = alloca i32, align 4
  %3 = alloca i32, align 4
  %4 = alloca i32, align 4
  %5 = alloca i32, align 4
  %6 = alloca i32, align 4
  %7 = alloca i32, align 4
  %8 = alloca [26 x i32], align 16
  %9 = bitcast [26 x i32]* %8 to i8*
  call void @llvm.memset.p0i8.i64(i8* align 16 %9, i8 0, i64 104, i1 false)
  %10 = call i32 (i8*, ...) @__isoc99_scanf(i8* getelementptr inbounds ([3 x i8], [3 x i8]* @.str, i64 0, i64 0), i32* %2)
  store i32 0, i32* %3, align 4
  br label %11

11:                                               ; preds = %56, %0
  %12 = load i32, i32* %3, align 4
  %13 = load i32, i32* %2, align 4
  %14 = icmp slt i32 %12, %13
  br i1 %14, label %15, label %59

15:                                               ; preds = %11
  %16 = load i32, i32* %3, align 4
  %17 = sext i32 %16 to i64
  %18 = getelementptr inbounds [100 x %struct.b], [100 x %struct.b]* %1, i64 0, i64 %17
  %19 = getelementptr inbounds %struct.b, %struct.b* %18, i32 0, i32 0
  %20 = load i32, i32* %3, align 4
  %21 = sext i32 %20 to i64
  %22 = getelementptr inbounds [100 x %struct.b], [100 x %struct.b]* %1, i64 0, i64 %21
  %23 = getelementptr inbounds %struct.b, %struct.b* %22, i32 0, i32 1
  %24 = getelementptr inbounds [27 x i8], [27 x i8]* %23, i64 0, i64 0
  %25 = call i32 (i8*, ...) @__isoc99_scanf(i8* getelementptr inbounds ([6 x i8], [6 x i8]* @.str.1, i64 0, i64 0), i32* %19, i8* %24)
  %26 = load i32, i32* %3, align 4
  %27 = sext i32 %26 to i64
  %28 = getelementptr inbounds [100 x %struct.b], [100 x %struct.b]* %1, i64 0, i64 %27
  %29 = getelementptr inbounds %struct.b, %struct.b* %28, i32 0, i32 1
  %30 = getelementptr inbounds [27 x i8], [27 x i8]* %29, i64 0, i64 0
  %31 = call i64 @strlen(i8* %30) #4
  %32 = trunc i64 %31 to i32
  store i32 %32, i32* %4, align 4
  store i32 0, i32* %5, align 4
  br label %33

33:                                               ; preds = %52, %15
  %34 = load i32, i32* %5, align 4
  %35 = load i32, i32* %4, align 4
  %36 = icmp slt i32 %34, %35
  br i1 %36, label %37, label %55

37:                                               ; preds = %33
  %38 = load i32, i32* %3, align 4
  %39 = sext i32 %38 to i64
  %40 = getelementptr inbounds [100 x %struct.b], [100 x %struct.b]* %1, i64 0, i64 %39
  %41 = getelementptr inbounds %struct.b, %struct.b* %40, i32 0, i32 1
  %42 = load i32, i32* %5, align 4
  %43 = sext i32 %42 to i64
  %44 = getelementptr inbounds [27 x i8], [27 x i8]* %41, i64 0, i64 %43
  %45 = load i8, i8* %44, align 1
  %46 = sext i8 %45 to i32
  %47 = sub nsw i32 %46, 65
  %48 = sext i32 %47 to i64
  %49 = getelementptr inbounds [26 x i32], [26 x i32]* %8, i64 0, i64 %48
  %50 = load i32, i32* %49, align 4
  %51 = add nsw i32 %50, 1
  store i32 %51, i32* %49, align 4
  br label %52

52:                                               ; preds = %37
  %53 = load i32, i32* %5, align 4
  %54 = add nsw i32 %53, 1
  store i32 %54, i32* %5, align 4
  br label %33

55:                                               ; preds = %33
  br label %56

56:                                               ; preds = %55
  %57 = load i32, i32* %3, align 4
  %58 = add nsw i32 %57, 1
  store i32 %58, i32* %3, align 4
  br label %11

59:                                               ; preds = %11
  %60 = getelementptr inbounds [26 x i32], [26 x i32]* %8, i64 0, i64 0
  %61 = load i32, i32* %60, align 16
  store i32 %61, i32* %6, align 4
  store i32 0, i32* %7, align 4
  store i32 0, i32* %3, align 4
  br label %62

62:                                               ; preds = %79, %59
  %63 = load i32, i32* %3, align 4
  %64 = icmp slt i32 %63, 26
  br i1 %64, label %65, label %82

65:                                               ; preds = %62
  %66 = load i32, i32* %3, align 4
  %67 = sext i32 %66 to i64
  %68 = getelementptr inbounds [26 x i32], [26 x i32]* %8, i64 0, i64 %67
  %69 = load i32, i32* %68, align 4
  %70 = load i32, i32* %6, align 4
  %71 = icmp sgt i32 %69, %70
  br i1 %71, label %72, label %78

72:                                               ; preds = %65
  %73 = load i32, i32* %3, align 4
  %74 = sext i32 %73 to i64
  %75 = getelementptr inbounds [26 x i32], [26 x i32]* %8, i64 0, i64 %74
  %76 = load i32, i32* %75, align 4
  store i32 %76, i32* %6, align 4
  %77 = load i32, i32* %3, align 4
  store i32 %77, i32* %7, align 4
  br label %78

78:                                               ; preds = %72, %65
  br label %79

79:                                               ; preds = %78
  %80 = load i32, i32* %3, align 4
  %81 = add nsw i32 %80, 1
  store i32 %81, i32* %3, align 4
  br label %62

82:                                               ; preds = %62
  %83 = load i32, i32* %7, align 4
  %84 = add nsw i32 %83, 65
  %85 = load i32, i32* %6, align 4
  %86 = call i32 (i8*, ...) @printf(i8* getelementptr inbounds ([7 x i8], [7 x i8]* @.str.2, i64 0, i64 0), i32 %84, i32 %85)
  store i32 0, i32* %3, align 4
  br label %87

87:                                               ; preds = %128, %82
  %88 = load i32, i32* %3, align 4
  %89 = load i32, i32* %2, align 4
  %90 = icmp slt i32 %88, %89
  br i1 %90, label %91, label %131

91:                                               ; preds = %87
  %92 = load i32, i32* %3, align 4
  %93 = sext i32 %92 to i64
  %94 = getelementptr inbounds [100 x %struct.b], [100 x %struct.b]* %1, i64 0, i64 %93
  %95 = getelementptr inbounds %struct.b, %struct.b* %94, i32 0, i32 1
  %96 = getelementptr inbounds [27 x i8], [27 x i8]* %95, i64 0, i64 0
  %97 = call i64 @strlen(i8* %96) #4
  %98 = trunc i64 %97 to i32
  store i32 %98, i32* %4, align 4
  store i32 0, i32* %5, align 4
  br label %99

99:                                               ; preds = %124, %91
  %100 = load i32, i32* %5, align 4
  %101 = load i32, i32* %4, align 4
  %102 = icmp slt i32 %100, %101
  br i1 %102, label %103, label %127

103:                                              ; preds = %99
  %104 = load i32, i32* %3, align 4
  %105 = sext i32 %104 to i64
  %106 = getelementptr inbounds [100 x %struct.b], [100 x %struct.b]* %1, i64 0, i64 %105
  %107 = getelementptr inbounds %struct.b, %struct.b* %106, i32 0, i32 1
  %108 = load i32, i32* %5, align 4
  %109 = sext i32 %108 to i64
  %110 = getelementptr inbounds [27 x i8], [27 x i8]* %107, i64 0, i64 %109
  %111 = load i8, i8* %110, align 1
  %112 = sext i8 %111 to i32
  %113 = load i32, i32* %7, align 4
  %114 = add nsw i32 %113, 65
  %115 = icmp eq i32 %112, %114
  br i1 %115, label %116, label %123

116:                                              ; preds = %103
  %117 = load i32, i32* %3, align 4
  %118 = sext i32 %117 to i64
  %119 = getelementptr inbounds [100 x %struct.b], [100 x %struct.b]* %1, i64 0, i64 %118
  %120 = getelementptr inbounds %struct.b, %struct.b* %119, i32 0, i32 0
  %121 = load i32, i32* %120, align 16
  %122 = call i32 (i8*, ...) @printf(i8* getelementptr inbounds ([4 x i8], [4 x i8]* @.str.3, i64 0, i64 0), i32 %121)
  br label %123

123:                                              ; preds = %116, %103
  br label %124

124:                                              ; preds = %123
  %125 = load i32, i32* %5, align 4
  %126 = add nsw i32 %125, 1
  store i32 %126, i32* %5, align 4
  br label %99

127:                                              ; preds = %99
  br label %128

128:                                              ; preds = %127
  %129 = load i32, i32* %3, align 4
  %130 = add nsw i32 %129, 1
  store i32 %130, i32* %3, align 4
  br label %87

131:                                              ; preds = %87
  ret void
}

; Function Attrs: argmemonly nounwind willreturn
declare void @llvm.memset.p0i8.i64(i8* nocapture writeonly, i8, i64, i1 immarg) #1

declare dso_local i32 @__isoc99_scanf(i8*, ...) #2

; Function Attrs: nounwind readonly
declare dso_local i64 @strlen(i8*) #3

declare dso_local i32 @printf(i8*, ...) #2


!llvm.module.flags = !{!0}
!llvm.ident = !{!1}

!0 = !{i32 1, !"wchar_size", i32 4}
!1 = !{!"clang version 10.0.0-4ubuntu1 "}
